target datalayout = "e-m:e-p270:32:32-p271:32:32-p272:64:64-i64:64-i128:128-f80:128-n8:16:32:64-S128"
target triple = "x86_64-pc-linux-gnu"

%struct.evthread_lock_callbacks = type { i32, i32, ptr, ptr, ptr, ptr }
%struct.evbuffer_chain = type { ptr, i64, i64, i64, i32, i32, ptr }
%struct.evbuffer = type { ptr, ptr, ptr, i64, i64, i64, i64, ptr, i8, i32, ptr, i32, %struct.event_callback, %struct.evbuffer_cb_queue, ptr }
%struct.event_callback = type { %struct.anon, i16, i8, i8, %union.anon, ptr }
%struct.anon = type { ptr, ptr }
%union.anon = type { ptr }
%struct.evbuffer_cb_queue = type { ptr }
%struct.evbuffer_ptr = type { i64, %struct.anon.0 }
%struct.anon.0 = type { ptr, i64 }

@evthread_lock_fns_ = external global %struct.evthread_lock_callbacks, align 8

; Function Attrs: nounwind uwtable
define i64 @evbuffer_copyout_from(ptr noundef %0, ptr noundef %1, ptr noundef %2, i64 noundef %3) #0 {
  %5 = alloca ptr, align 8
  %6 = alloca ptr, align 8
  %7 = alloca ptr, align 8
  %8 = alloca i64, align 8
  %9 = alloca ptr, align 8
  %10 = alloca ptr, align 8
  %11 = alloca i64, align 8
  %12 = alloca i64, align 8
  %13 = alloca i64, align 8
  %14 = alloca i64, align 8
  store ptr %0, ptr %5, align 8
  store ptr %1, ptr %6, align 8
  store ptr %2, ptr %7, align 8
  store i64 %3, ptr %8, align 8
  call void @llvm.lifetime.start.p0(i64 8, ptr %9) #10
  call void @llvm.lifetime.start.p0(i64 8, ptr %10) #10
  %15 = load ptr, ptr %7, align 8
  store ptr %15, ptr %10, align 8
  call void @llvm.lifetime.start.p0(i64 8, ptr %11) #10
  call void @llvm.lifetime.start.p0(i64 8, ptr %12) #10
  store i64 0, ptr %12, align 8
  call void @llvm.lifetime.start.p0(i64 8, ptr %13) #10
  br label %16

16:                                               ; preds = %4
  br label %17

17:                                               ; preds = %16
  %18 = load ptr, ptr %5, align 8
  %19 = getelementptr inbounds nuw %struct.evbuffer, ptr %18, i32 0, i32 7
  %20 = load ptr, ptr %19, align 8
  %21 = icmp ne ptr %20, null
  br i1 %21, label %22, label %28

22:                                               ; preds = %17
  %23 = load ptr, ptr getelementptr inbounds nuw (%struct.evthread_lock_callbacks, ptr @evthread_lock_fns_, i32 0, i32 4), align 8
  %24 = load ptr, ptr %5, align 8
  %25 = getelementptr inbounds nuw %struct.evbuffer, ptr %24, i32 0, i32 7
  %26 = load ptr, ptr %25, align 8
  %27 = call i32 %23(i32 noundef 0, ptr noundef %26)
  br label %28

28:                                               ; preds = %22, %17
  br label %29

29:                                               ; preds = %28
  br label %30

30:                                               ; preds = %29
  br label %31

31:                                               ; preds = %30
  br label %32

32:                                               ; preds = %31
  %33 = load ptr, ptr %6, align 8
  %34 = icmp ne ptr %33, null
  br i1 %34, label %35, label %70

35:                                               ; preds = %32
  %36 = load i64, ptr %8, align 8
  %37 = load ptr, ptr %6, align 8
  %38 = getelementptr inbounds nuw %struct.evbuffer_ptr, ptr %37, i32 0, i32 0
  %39 = load i64, ptr %38, align 8
  %40 = sub nsw i64 9223372036854775807, %39
  %41 = icmp ugt i64 %36, %40
  br i1 %41, label %42, label %43

42:                                               ; preds = %35
  store i64 -1, ptr %12, align 8
  br label %164

43:                                               ; preds = %35
  %44 = load ptr, ptr %6, align 8
  %45 = getelementptr inbounds nuw %struct.evbuffer_ptr, ptr %44, i32 0, i32 1
  %46 = getelementptr inbounds nuw %struct.anon.0, ptr %45, i32 0, i32 0
  %47 = load ptr, ptr %46, align 8
  store ptr %47, ptr %9, align 8
  %48 = load ptr, ptr %6, align 8
  %49 = getelementptr inbounds nuw %struct.evbuffer_ptr, ptr %48, i32 0, i32 1
  %50 = getelementptr inbounds nuw %struct.anon.0, ptr %49, i32 0, i32 1
  %51 = load i64, ptr %50, align 8
  store i64 %51, ptr %13, align 8
  %52 = load i64, ptr %8, align 8
  %53 = load ptr, ptr %6, align 8
  %54 = getelementptr inbounds nuw %struct.evbuffer_ptr, ptr %53, i32 0, i32 0
  %55 = load i64, ptr %54, align 8
  %56 = add i64 %52, %55
  %57 = load ptr, ptr %5, align 8
  %58 = getelementptr inbounds nuw %struct.evbuffer, ptr %57, i32 0, i32 3
  %59 = load i64, ptr %58, align 8
  %60 = icmp ugt i64 %56, %59
  br i1 %60, label %61, label %69

61:                                               ; preds = %43
  %62 = load ptr, ptr %5, align 8
  %63 = getelementptr inbounds nuw %struct.evbuffer, ptr %62, i32 0, i32 3
  %64 = load i64, ptr %63, align 8
  %65 = load ptr, ptr %6, align 8
  %66 = getelementptr inbounds nuw %struct.evbuffer_ptr, ptr %65, i32 0, i32 0
  %67 = load i64, ptr %66, align 8
  %68 = sub i64 %64, %67
  store i64 %68, ptr %8, align 8
  br label %69

69:                                               ; preds = %61, %43
  br label %84

70:                                               ; preds = %32
  %71 = load ptr, ptr %5, align 8
  %72 = getelementptr inbounds nuw %struct.evbuffer, ptr %71, i32 0, i32 0
  %73 = load ptr, ptr %72, align 8
  store ptr %73, ptr %9, align 8
  store i64 0, ptr %13, align 8
  %74 = load i64, ptr %8, align 8
  %75 = load ptr, ptr %5, align 8
  %76 = getelementptr inbounds nuw %struct.evbuffer, ptr %75, i32 0, i32 3
  %77 = load i64, ptr %76, align 8
  %78 = icmp ugt i64 %74, %77
  br i1 %78, label %79, label %83

79:                                               ; preds = %70
  %80 = load ptr, ptr %5, align 8
  %81 = getelementptr inbounds nuw %struct.evbuffer, ptr %80, i32 0, i32 3
  %82 = load i64, ptr %81, align 8
  store i64 %82, ptr %8, align 8
  br label %83

83:                                               ; preds = %79, %70
  br label %84

84:                                               ; preds = %83, %69
  %85 = load i64, ptr %8, align 8
  %86 = icmp eq i64 %85, 0
  br i1 %86, label %87, label %88

87:                                               ; preds = %84
  br label %164

88:                                               ; preds = %84
  %89 = load ptr, ptr %5, align 8
  %90 = getelementptr inbounds nuw %struct.evbuffer, ptr %89, i32 0, i32 8
  %91 = load i8, ptr %90, align 8
  %92 = lshr i8 %91, 1
  %93 = and i8 %92, 1
  %94 = zext i8 %93 to i32
  %95 = icmp ne i32 %94, 0
  br i1 %95, label %96, label %97

96:                                               ; preds = %88
  store i64 -1, ptr %12, align 8
  br label %164

97:                                               ; preds = %88
  %98 = load i64, ptr %8, align 8
  store i64 %98, ptr %11, align 8
  br label %99

99:                                               ; preds = %140, %97
  %100 = load i64, ptr %8, align 8
  %101 = icmp ne i64 %100, 0
  br i1 %101, label %102, label %110

102:                                              ; preds = %99
  %103 = load i64, ptr %8, align 8
  %104 = load ptr, ptr %9, align 8
  %105 = getelementptr inbounds nuw %struct.evbuffer_chain, ptr %104, i32 0, i32 3
  %106 = load i64, ptr %105, align 8
  %107 = load i64, ptr %13, align 8
  %108 = sub i64 %106, %107
  %109 = icmp uge i64 %103, %108
  br label %110

110:                                              ; preds = %102, %99
  %111 = phi i1 [ false, %99 ], [ %109, %102 ]
  br i1 %111, label %112, label %141

112:                                              ; preds = %110
  call void @llvm.lifetime.start.p0(i64 8, ptr %14) #10
  %113 = load ptr, ptr %9, align 8
  %114 = getelementptr inbounds nuw %struct.evbuffer_chain, ptr %113, i32 0, i32 3
  %115 = load i64, ptr %114, align 8
  %116 = load i64, ptr %13, align 8
  %117 = sub i64 %115, %116
  store i64 %117, ptr %14, align 8
  %118 = load ptr, ptr %10, align 8
  %119 = load ptr, ptr %9, align 8
  %120 = getelementptr inbounds nuw %struct.evbuffer_chain, ptr %119, i32 0, i32 6
  %121 = load ptr, ptr %120, align 8
  %122 = load ptr, ptr %9, align 8
  %123 = getelementptr inbounds nuw %struct.evbuffer_chain, ptr %122, i32 0, i32 2
  %124 = load i64, ptr %123, align 8
  %125 = getelementptr inbounds i8, ptr %121, i64 %124
  %126 = load i64, ptr %13, align 8
  %127 = getelementptr inbounds nuw i8, ptr %125, i64 %126
  %128 = load i64, ptr %14, align 8
  call void @llvm.memcpy.p0.p0.i64(ptr align 1 %118, ptr align 1 %127, i64 %128, i1 false)
  %129 = load i64, ptr %14, align 8
  %130 = load ptr, ptr %10, align 8
  %131 = getelementptr inbounds nuw i8, ptr %130, i64 %129
  store ptr %131, ptr %10, align 8
  %132 = load i64, ptr %14, align 8
  %133 = load i64, ptr %8, align 8
  %134 = sub i64 %133, %132
  store i64 %134, ptr %8, align 8
  %135 = load ptr, ptr %9, align 8
  %136 = getelementptr inbounds nuw %struct.evbuffer_chain, ptr %135, i32 0, i32 0
  %137 = load ptr, ptr %136, align 8
  store ptr %137, ptr %9, align 8
  store i64 0, ptr %13, align 8
  br label %138

138:                                              ; preds = %112
  br label %139

139:                                              ; preds = %138
  br label %140

140:                                              ; preds = %139
  call void @llvm.lifetime.end.p0(i64 8, ptr %14) #10
  br label %99, !llvm.loop !20

141:                                              ; preds = %110
  %142 = load i64, ptr %8, align 8
  %143 = icmp ne i64 %142, 0
  br i1 %143, label %144, label %162

144:                                              ; preds = %141
  br label %145

145:                                              ; preds = %144
  br label %146

146:                                              ; preds = %145
  br label %147

147:                                              ; preds = %146
  br label %148

148:                                              ; preds = %147
  br label %149

149:                                              ; preds = %148
  br label %150

150:                                              ; preds = %149
  %151 = load ptr, ptr %10, align 8
  %152 = load ptr, ptr %9, align 8
  %153 = getelementptr inbounds nuw %struct.evbuffer_chain, ptr %152, i32 0, i32 6
  %154 = load ptr, ptr %153, align 8
  %155 = load ptr, ptr %9, align 8
  %156 = getelementptr inbounds nuw %struct.evbuffer_chain, ptr %155, i32 0, i32 2
  %157 = load i64, ptr %156, align 8
  %158 = getelementptr inbounds i8, ptr %154, i64 %157
  %159 = load i64, ptr %13, align 8
  %160 = getelementptr inbounds nuw i8, ptr %158, i64 %159
  %161 = load i64, ptr %8, align 8
  call void @llvm.memcpy.p0.p0.i64(ptr align 1 %151, ptr align 1 %160, i64 %161, i1 false)
  br label %162

162:                                              ; preds = %150, %141
  %163 = load i64, ptr %11, align 8
  store i64 %163, ptr %12, align 8
  br label %164

164:                                              ; preds = %162, %96, %87, %42
  br label %165

165:                                              ; preds = %164
  br label %166

166:                                              ; preds = %165
  %167 = load ptr, ptr %5, align 8
  %168 = getelementptr inbounds nuw %struct.evbuffer, ptr %167, i32 0, i32 7
  %169 = load ptr, ptr %168, align 8
  %170 = icmp ne ptr %169, null
  br i1 %170, label %171, label %177

171:                                              ; preds = %166
  %172 = load ptr, ptr getelementptr inbounds nuw (%struct.evthread_lock_callbacks, ptr @evthread_lock_fns_, i32 0, i32 5), align 8
  %173 = load ptr, ptr %5, align 8
  %174 = getelementptr inbounds nuw %struct.evbuffer, ptr %173, i32 0, i32 7
  %175 = load ptr, ptr %174, align 8
  %176 = call i32 %172(i32 noundef 0, ptr noundef %175)
  br label %177

177:                                              ; preds = %171, %166
  br label %178

178:                                              ; preds = %177
  br label %179

179:                                              ; preds = %178
  br label %180

180:                                              ; preds = %179
  br label %181

181:                                              ; preds = %180
  %182 = load i64, ptr %12, align 8
  call void @llvm.lifetime.end.p0(i64 8, ptr %13) #10
  call void @llvm.lifetime.end.p0(i64 8, ptr %12) #10
  call void @llvm.lifetime.end.p0(i64 8, ptr %11) #10
  call void @llvm.lifetime.end.p0(i64 8, ptr %10) #10
  call void @llvm.lifetime.end.p0(i64 8, ptr %9) #10
  ret i64 %182
}

; Function Attrs: nounwind uwtable
define i32 @evbuffer_remove(ptr noundef %0, ptr noundef %1, i64 noundef %2) #0 {
  %4 = alloca ptr, align 8
  %5 = alloca ptr, align 8
  %6 = alloca i64, align 8
  %7 = alloca i64, align 8
  store ptr %0, ptr %4, align 8
  store ptr %1, ptr %5, align 8
  store i64 %2, ptr %6, align 8
  call void @llvm.lifetime.start.p0(i64 8, ptr %7) #10
  br label %8

8:                                                ; preds = %3
  br label %9

9:                                                ; preds = %8
  %10 = load ptr, ptr %4, align 8
  %11 = getelementptr inbounds nuw %struct.evbuffer, ptr %10, i32 0, i32 7
  %12 = load ptr, ptr %11, align 8
  %13 = icmp ne ptr %12, null
  br i1 %13, label %14, label %20

14:                                               ; preds = %9
  %15 = load ptr, ptr getelementptr inbounds nuw (%struct.evthread_lock_callbacks, ptr @evthread_lock_fns_, i32 0, i32 4), align 8
  %16 = load ptr, ptr %4, align 8
  %17 = getelementptr inbounds nuw %struct.evbuffer, ptr %16, i32 0, i32 7
  %18 = load ptr, ptr %17, align 8
  %19 = call i32 %15(i32 noundef 0, ptr noundef %18)
  br label %20

20:                                               ; preds = %14, %9
  br label %21

21:                                               ; preds = %20
  br label %22

22:                                               ; preds = %21
  br label %23

23:                                               ; preds = %22
  br label %24

24:                                               ; preds = %23
  %25 = load ptr, ptr %4, align 8
  %26 = load ptr, ptr %5, align 8
  %27 = load i64, ptr %6, align 8
  %28 = call i64 @evbuffer_copyout_from(ptr noundef %25, ptr noundef null, ptr noundef %26, i64 noundef %27)
  store i64 %28, ptr %7, align 8
  %29 = load i64, ptr %7, align 8
  %30 = icmp sgt i64 %29, 0
  br i1 %30, label %31, label %38

31:                                               ; preds = %24
  %32 = load ptr, ptr %4, align 8
  %33 = load i64, ptr %7, align 8
  %34 = call i32 @evbuffer_drain(ptr noundef %32, i64 noundef %33)
  %35 = icmp slt i32 %34, 0
  br i1 %35, label %36, label %37

36:                                               ; preds = %31
  store i64 -1, ptr %7, align 8
  br label %37

37:                                               ; preds = %36, %31
  br label %38

38:                                               ; preds = %37, %24
  br label %39

39:                                               ; preds = %38
  br label %40

40:                                               ; preds = %39
  %41 = load ptr, ptr %4, align 8
  %42 = getelementptr inbounds nuw %struct.evbuffer, ptr %41, i32 0, i32 7
  %43 = load ptr, ptr %42, align 8
  %44 = icmp ne ptr %43, null
  br i1 %44, label %45, label %51

45:                                               ; preds = %40
  %46 = load ptr, ptr getelementptr inbounds nuw (%struct.evthread_lock_callbacks, ptr @evthread_lock_fns_, i32 0, i32 5), align 8
  %47 = load ptr, ptr %4, align 8
  %48 = getelementptr inbounds nuw %struct.evbuffer, ptr %47, i32 0, i32 7
  %49 = load ptr, ptr %48, align 8
  %50 = call i32 %46(i32 noundef 0, ptr noundef %49)
  br label %51

51:                                               ; preds = %45, %40
  br label %52

52:                                               ; preds = %51
  br label %53

53:                                               ; preds = %52
  br label %54

54:                                               ; preds = %53
  br label %55

55:                                               ; preds = %54
  %56 = load i64, ptr %7, align 8
  %57 = trunc i64 %56 to i32
  call void @llvm.lifetime.end.p0(i64 8, ptr %7) #10
  ret i32 %57
}