; Function Attrs: nounwind uwtable
define i32 @evbuffer_remove(ptr noundef %0, ptr noundef writeonly captures(none) %1, i64 noundef %2) local_unnamed_addr #1 {
  %4 = getelementptr inbounds nuw i8, ptr %0, i64 56
  %5 = load ptr, ptr %4, align 8
  %.not = icmp eq ptr %5, null
  br i1 %.not, label %.thread, label %6

6:                                                ; preds = %3
  %7 = load ptr, ptr getelementptr inbounds nuw (i8, ptr @evthread_lock_fns_, i64 24), align 8
  %8 = tail call i32 %7(i32 noundef 0, ptr noundef nonnull %5) #16
  %.pr = load ptr, ptr %4, align 8
  %.not.i = icmp eq ptr %.pr, null
  br i1 %.not.i, label %.thread, label %9

9:                                                ; preds = %6
  %10 = load ptr, ptr getelementptr inbounds nuw (i8, ptr @evthread_lock_fns_, i64 24), align 8
  %11 = tail call i32 %10(i32 noundef 0, ptr noundef nonnull %.pr) #16
  br label %.thread

.thread:                                          ; preds = %3, %9, %6
  %12 = getelementptr inbounds nuw i8, ptr %0, i64 24
  %13 = load i64, ptr %12, align 8
  %spec.select64.i = tail call i64 @llvm.umin.i64(i64 %2, i64 %13)
  %14 = icmp eq i64 %spec.select64.i, 0
  br i1 %14, label %.critedge65.i, label %15

15:                                               ; preds = %.thread
  %16 = getelementptr inbounds nuw i8, ptr %0, i64 64
  %17 = load i8, ptr %16, align 8
  %18 = and i8 %17, 2
  %.not60.i = icmp eq i8 %18, 0
  br i1 %.not60.i, label %.preheader.i, label %.critedge65.i

.preheader.i:                                     ; preds = %15, %26
  %.14974.in.i = phi ptr [ %.14974.i, %26 ], [ %0, %15 ]
  %.173.i = phi i64 [ %28, %26 ], [ %spec.select64.i, %15 ]
  %.05071.i = phi ptr [ %27, %26 ], [ %1, %15 ]
  %.14974.i = load ptr, ptr %.14974.in.i, align 8
  %19 = getelementptr inbounds nuw i8, ptr %.14974.i, i64 24
  %20 = load i64, ptr %19, align 8
  %.not62.i = icmp ult i64 %.173.i, %20
  %21 = getelementptr inbounds nuw i8, ptr %.14974.i, i64 40
  %22 = load ptr, ptr %21, align 8
  %23 = getelementptr inbounds nuw i8, ptr %.14974.i, i64 16
  %24 = load i64, ptr %23, align 8
  %25 = getelementptr inbounds i8, ptr %22, i64 %24
  br i1 %.not62.i, label %.critedge.i, label %26

26:                                               ; preds = %.preheader.i
  tail call void @llvm.memcpy.p0.p0.i64(ptr align 1 %.05071.i, ptr align 1 %25, i64 %20, i1 false)
  %27 = getelementptr inbounds nuw i8, ptr %.05071.i, i64 %20
  %28 = sub nuw i64 %.173.i, %20
  %.not61.i = icmp eq i64 %28, 0
  br i1 %.not61.i, label %.critedge65.i, label %.preheader.i, !llvm.loop !22

.critedge.i:                                      ; preds = %.preheader.i
  tail call void @llvm.memcpy.p0.p0.i64(ptr align 1 %.05071.i, ptr align 1 %25, i64 %.173.i, i1 false)
  br label %.critedge65.i

.critedge65.i:                                    ; preds = %26, %.critedge.i, %15, %.thread
  %.047.i = phi i64 [ 0, %.thread ], [ -1, %15 ], [ %spec.select64.i, %.critedge.i ], [ %spec.select64.i, %26 ]
  %29 = load ptr, ptr %4, align 8
  %.not63.i = icmp eq ptr %29, null
  br i1 %.not63.i, label %evbuffer_copyout_from.exit, label %30

30:                                               ; preds = %.critedge65.i
  %31 = load ptr, ptr getelementptr inbounds nuw (i8, ptr @evthread_lock_fns_, i64 32), align 8
  %32 = tail call i32 %31(i32 noundef 0, ptr noundef nonnull %29) #16
  br label %evbuffer_copyout_from.exit

evbuffer_copyout_from.exit:                       ; preds = %.critedge65.i, %30
  %33 = icmp sgt i64 %.047.i, 0
  br i1 %33, label %34, label %37

34:                                               ; preds = %evbuffer_copyout_from.exit
  %35 = tail call i32 @evbuffer_drain(ptr noundef nonnull %0, i64 noundef %.047.i)
  %36 = icmp slt i32 %35, 0
  %spec.select = select i1 %36, i64 -1, i64 %.047.i
  br label %37

37:                                               ; preds = %34, %evbuffer_copyout_from.exit
  %.0 = phi i64 [ %.047.i, %evbuffer_copyout_from.exit ], [ %spec.select, %34 ]
  %38 = load ptr, ptr %4, align 8
  %.not13 = icmp eq ptr %38, null
  br i1 %.not13, label %42, label %39

39:                                               ; preds = %37
  %40 = load ptr, ptr getelementptr inbounds nuw (i8, ptr @evthread_lock_fns_, i64 32), align 8
  %41 = tail call i32 %40(i32 noundef 0, ptr noundef nonnull %38) #16
  br label %42

42:                                               ; preds = %39, %37
  %43 = trunc i64 %.0 to i32
  ret i32 %43
}